; Function Attrs: nounwind uwtable
define void @Cec_ManSStop(ptr noundef captures(none) %0) local_unnamed_addr #0 {
  %2 = getelementptr inbounds nuw i8, ptr %0, i64 24
  %3 = load ptr, ptr %2, align 8, !tbaa !20
  %4 = getelementptr inbounds nuw i8, ptr %3, i64 8
  %5 = load ptr, ptr %4, align 8, !tbaa !19
  %.not.i = icmp eq ptr %5, null
  br i1 %.not.i, label %Vec_IntFree.exit, label %6

6:                                                ; preds = %1
  tail call void @free(ptr noundef nonnull %5) #20
  br label %Vec_IntFree.exit

Vec_IntFree.exit:                                 ; preds = %1, %6
  tail call void @free(ptr noundef nonnull %3) #20
  %7 = getelementptr inbounds nuw i8, ptr %0, i64 32
  %8 = load ptr, ptr %7, align 8, !tbaa !25
  %9 = load i32, ptr %8, align 8, !tbaa !21
  %10 = icmp sgt i32 %9, 0
  %11 = getelementptr inbounds nuw i8, ptr %8, i64 8
  %.pre.i.i = load ptr, ptr %11, align 8, !tbaa !23
  br i1 %10, label %.lr.ph.i.i, label %._crit_edge.i.i

.lr.ph.i.i:                                       ; preds = %Vec_IntFree.exit, %19
  %12 = phi i32 [ %20, %19 ], [ %9, %Vec_IntFree.exit ]
  %13 = phi ptr [ %21, %19 ], [ %.pre.i.i, %Vec_IntFree.exit ]
  %indvars.iv.i.i = phi i64 [ %indvars.iv.next.i.i, %19 ], [ 0, %Vec_IntFree.exit ]
  %14 = getelementptr inbounds nuw %struct.Vec_Int_t_, ptr %13, i64 %indvars.iv.i.i, i32 2
  %15 = load ptr, ptr %14, align 8, !tbaa !19
  %.not15.i.i = icmp eq ptr %15, null
  br i1 %.not15.i.i, label %19, label %16

16:                                               ; preds = %.lr.ph.i.i
  tail call void @free(ptr noundef nonnull %15) #20
  %17 = load ptr, ptr %11, align 8, !tbaa !23
  %18 = getelementptr inbounds nuw %struct.Vec_Int_t_, ptr %17, i64 %indvars.iv.i.i, i32 2
  store ptr null, ptr %18, align 8, !tbaa !19
  %.pre18.i.i = load i32, ptr %8, align 8, !tbaa !21
  br label %19

19:                                               ; preds = %16, %.lr.ph.i.i
  %20 = phi i32 [ %.pre18.i.i, %16 ], [ %12, %.lr.ph.i.i ]
  %21 = phi ptr [ %17, %16 ], [ %13, %.lr.ph.i.i ]
  %indvars.iv.next.i.i = add nuw nsw i64 %indvars.iv.i.i, 1
  %22 = sext i32 %20 to i64
  %23 = icmp slt i64 %indvars.iv.next.i.i, %22
  br i1 %23, label %.lr.ph.i.i, label %._crit_edge.thread.i.i, !llvm.loop !51

._crit_edge.i.i:                                  ; preds = %Vec_IntFree.exit
  %.not.i.i = icmp eq ptr %.pre.i.i, null
  br i1 %.not.i.i, label %Vec_WecFree.exit, label %._crit_edge.thread.i.i

._crit_edge.thread.i.i:                           ; preds = %19, %._crit_edge.i.i
  %24 = phi ptr [ %.pre.i.i, %._crit_edge.i.i ], [ %21, %19 ]
  tail call void @free(ptr noundef nonnull %24) #20
  br label %Vec_WecFree.exit

Vec_WecFree.exit:                                 ; preds = %._crit_edge.i.i, %._crit_edge.thread.i.i
  tail call void @free(ptr noundef nonnull %8) #20
  %25 = getelementptr inbounds nuw i8, ptr %0, i64 40
  %26 = load ptr, ptr %25, align 8, !tbaa !45
  %27 = getelementptr inbounds nuw i8, ptr %26, i64 8
  %28 = load ptr, ptr %27, align 8, !tbaa !43
  %.not.i10 = icmp eq ptr %28, null
  br i1 %.not.i10, label %Vec_WrdFree.exit, label %29

29:                                               ; preds = %Vec_WecFree.exit
  tail call void @free(ptr noundef nonnull %28) #20
  br label %Vec_WrdFree.exit

Vec_WrdFree.exit:                                 ; preds = %Vec_WecFree.exit, %29
  tail call void @free(ptr noundef nonnull %26) #20
  %30 = getelementptr inbounds nuw i8, ptr %0, i64 48
  %31 = load ptr, ptr %30, align 8, !tbaa !46
  %.not = icmp eq ptr %31, null
  br i1 %.not, label %33, label %32

32:                                               ; preds = %Vec_WrdFree.exit
  tail call void @free(ptr noundef nonnull %31) #20
  br label %33

33:                                               ; preds = %Vec_WrdFree.exit, %32
  tail call void @free(ptr noundef nonnull %0) #20
  ret void
}